target datalayout = "e-m:e-p270:32:32-p271:32:32-p272:64:64-i64:64-i128:128-f80:128-n8:16:32:64-S128"
target triple = "x86_64-pc-linux-gnu"

%struct._GtkDarktableGradientSlider = type { %struct._GtkDrawingArea, ptr, i32, i32, i32, [10 x double], [10 x double], [10 x i32], double, double, [3 x double], i32, i32, i32, i32, i32, i32, i32, i32, i32, ptr }
%struct._GtkDrawingArea = type { %struct._GtkWidget, ptr }
%struct._GtkWidget = type { %struct._GObject, ptr }
%struct._GObject = type { %struct._GTypeInstance, i32, ptr }
%struct._GTypeInstance = type { ptr }
%struct._GTypeClass = type { i64 }
%struct._GdkEventButton = type { i32, ptr, i8, i32, double, double, ptr, i32, i32, ptr, double, double }

@_gradient_slider_get_type.static_g_define_type_id = internal global i64 0, align 8
@.str.2 = private unnamed_addr constant [14 x i8] c"value-changed\00", align 1
@.str.9 = private unnamed_addr constant [33 x i8] c"DTGTK_IS_GRADIENT_SLIDER(widget)\00", align 1
@__func__._gradient_slider_button_release = private unnamed_addr constant [32 x i8] c"_gradient_slider_button_release\00", align 1

; Function Attrs: nounwind uwtable
define i64 @_gradient_slider_get_type() #0 {
  %1 = alloca i32, align 4
  %2 = alloca i64, align 8
  %3 = alloca ptr, align 8
  %4 = alloca i64, align 8
  %5 = alloca i64, align 8
  call void @llvm.lifetime.start.p0(i64 8, ptr %2) #11
  call void @llvm.lifetime.start.p0(i64 8, ptr %3) #11
  store ptr @_gradient_slider_get_type.static_g_define_type_id, ptr %3, align 8, !tbaa !6
  %6 = load ptr, ptr %3, align 8, !tbaa !6
  %7 = load atomic i64, ptr %6 seq_cst, align 8
  store i64 %7, ptr %2, align 8
  %8 = load i64, ptr %2, align 8, !tbaa !11
  store i64 %8, ptr %4, align 8, !tbaa !11
  call void @llvm.lifetime.end.p0(i64 8, ptr %3) #11
  call void @llvm.lifetime.end.p0(i64 8, ptr %2) #11
  %9 = load i64, ptr %4, align 8, !tbaa !11
  %10 = icmp ne i64 %9, 0
  br i1 %10, label %14, label %11

11:                                               ; preds = %0
  %12 = call i32 @g_once_init_enter(ptr noundef @_gradient_slider_get_type.static_g_define_type_id)
  %13 = icmp ne i32 %12, 0
  br label %14

14:                                               ; preds = %11, %0
  %15 = phi i1 [ false, %0 ], [ %13, %11 ]
  %16 = zext i1 %15 to i32
  store i32 %16, ptr %1, align 4, !tbaa !13
  %17 = load i32, ptr %1, align 4, !tbaa !13
  %18 = icmp ne i32 %17, 0
  br i1 %18, label %19, label %22

19:                                               ; preds = %14
  call void @llvm.lifetime.start.p0(i64 8, ptr %5) #11
  %20 = call i64 @_gradient_slider_get_type_once()
  store i64 %20, ptr %5, align 8, !tbaa !11
  %21 = load i64, ptr %5, align 8, !tbaa !11
  call void @g_once_init_leave(ptr noundef @_gradient_slider_get_type.static_g_define_type_id, i64 noundef %21)
  call void @llvm.lifetime.end.p0(i64 8, ptr %5) #11
  br label %22

22:                                               ; preds = %19, %14
  %23 = load i64, ptr @_gradient_slider_get_type.static_g_define_type_id, align 8, !tbaa !11
  ret i64 %23
}

; Function Attrs: nounwind uwtable
define i64 @dtgtk_gradient_slider_get_type() #0 {
  %1 = call i64 @_gradient_slider_get_type()
  ret i64 %1
}

; Function Attrs: inlinehint nounwind uwtable
define internal i32 @_get_active_marker(ptr noundef %0) #8 {
  %2 = alloca ptr, align 8
  store ptr %0, ptr %2, align 8, !tbaa !24
  %3 = load ptr, ptr %2, align 8, !tbaa !24
  %4 = getelementptr inbounds nuw %struct._GtkDarktableGradientSlider, ptr %3, i32 0, i32 2
  %5 = load i32, ptr %4, align 8, !tbaa !41
  %6 = icmp sge i32 %5, 0
  br i1 %6, label %7, label %11

7:                                                ; preds = %1
  %8 = load ptr, ptr %2, align 8, !tbaa !24
  %9 = getelementptr inbounds nuw %struct._GtkDarktableGradientSlider, ptr %8, i32 0, i32 2
  %10 = load i32, ptr %9, align 8, !tbaa !41
  br label %15

11:                                               ; preds = %1
  %12 = load ptr, ptr %2, align 8, !tbaa !24
  %13 = getelementptr inbounds nuw %struct._GtkDarktableGradientSlider, ptr %12, i32 0, i32 3
  %14 = load i32, ptr %13, align 4, !tbaa !42
  br label %15

15:                                               ; preds = %11, %7
  %16 = phi i32 [ %10, %7 ], [ %14, %11 ]
  ret i32 %16
}

; Function Attrs: inlinehint nounwind uwtable
define internal ptr @DTGTK_GRADIENT_SLIDER(ptr noundef %0) #8 {
  %2 = alloca ptr, align 8
  store ptr %0, ptr %2, align 8, !tbaa !15
  %3 = load ptr, ptr %2, align 8, !tbaa !15
  %4 = call i64 @dtgtk_gradient_slider_get_type()
  %5 = call ptr @g_type_check_instance_cast(ptr noundef %3, i64 noundef %4)
  ret ptr %5
}

; Function Attrs: inlinehint nounwind uwtable
define internal i32 @DTGTK_IS_GRADIENT_SLIDER(ptr noundef %0) #8 {
  %2 = alloca ptr, align 8
  %3 = alloca ptr, align 8
  %4 = alloca i64, align 8
  %5 = alloca i32, align 4
  %6 = alloca i32, align 4
  store ptr %0, ptr %2, align 8, !tbaa !15
  call void @llvm.lifetime.start.p0(i64 8, ptr %3) #11
  %7 = load ptr, ptr %2, align 8, !tbaa !15
  store ptr %7, ptr %3, align 8, !tbaa !205
  call void @llvm.lifetime.start.p0(i64 8, ptr %4) #11
  %8 = call i64 @dtgtk_gradient_slider_get_type()
  store i64 %8, ptr %4, align 8, !tbaa !11
  call void @llvm.lifetime.start.p0(i64 4, ptr %5) #11
  %9 = load ptr, ptr %3, align 8, !tbaa !205
  %10 = icmp ne ptr %9, null
  br i1 %10, label %12, label %11

11:                                               ; preds = %1
  store i32 0, ptr %5, align 4, !tbaa !13
  br label %31

12:                                               ; preds = %1
  %13 = load ptr, ptr %3, align 8, !tbaa !205
  %14 = getelementptr inbounds nuw %struct._GTypeInstance, ptr %13, i32 0, i32 0
  %15 = load ptr, ptr %14, align 8, !tbaa !207
  %16 = icmp ne ptr %15, null
  br i1 %16, label %17, label %26

17:                                               ; preds = %12
  %18 = load ptr, ptr %3, align 8, !tbaa !205
  %19 = getelementptr inbounds nuw %struct._GTypeInstance, ptr %18, i32 0, i32 0
  %20 = load ptr, ptr %19, align 8, !tbaa !207
  %21 = getelementptr inbounds nuw %struct._GTypeClass, ptr %20, i32 0, i32 0
  %22 = load i64, ptr %21, align 8, !tbaa !121
  %23 = load i64, ptr %4, align 8, !tbaa !11
  %24 = icmp eq i64 %22, %23
  br i1 %24, label %25, label %26

25:                                               ; preds = %17
  store i32 1, ptr %5, align 4, !tbaa !13
  br label %30

26:                                               ; preds = %17, %12
  %27 = load ptr, ptr %3, align 8, !tbaa !205
  %28 = load i64, ptr %4, align 8, !tbaa !11
  %29 = call i32 @g_type_check_instance_is_a(ptr noundef %27, i64 noundef %28) #14
  store i32 %29, ptr %5, align 4, !tbaa !13
  br label %30

30:                                               ; preds = %26, %25
  br label %31

31:                                               ; preds = %30, %11
  %32 = load i32, ptr %5, align 4, !tbaa !13
  store i32 %32, ptr %6, align 4, !tbaa !13
  call void @llvm.lifetime.end.p0(i64 4, ptr %5) #11
  call void @llvm.lifetime.end.p0(i64 8, ptr %4) #11
  call void @llvm.lifetime.end.p0(i64 8, ptr %3) #11
  %33 = load i32, ptr %6, align 4, !tbaa !13
  ret i32 %33
}

; Function Attrs: nounwind uwtable
define internal i32 @_gradient_slider_button_release(ptr noundef %0, ptr noundef %1) #0 {
  %3 = alloca i32, align 4
  %4 = alloca ptr, align 8
  %5 = alloca ptr, align 8
  %6 = alloca i32, align 4
  %7 = alloca i32, align 4
  %8 = alloca ptr, align 8
  %9 = alloca i32, align 4
  %10 = alloca double, align 8
  %11 = alloca i32, align 4
  store ptr %0, ptr %4, align 8, !tbaa !54
  store ptr %1, ptr %5, align 8, !tbaa !146
  br label %12

12:                                               ; preds = %2
  call void @llvm.lifetime.start.p0(i64 4, ptr %6) #11
  %13 = load ptr, ptr %4, align 8, !tbaa !54
  %14 = call i32 @DTGTK_IS_GRADIENT_SLIDER(ptr noundef %13)
  %15 = icmp ne i32 %14, 0
  br i1 %15, label %16, label %17

16:                                               ; preds = %12
  store i32 1, ptr %6, align 4, !tbaa !13
  br label %18

17:                                               ; preds = %12
  store i32 0, ptr %6, align 4, !tbaa !13
  br label %18

18:                                               ; preds = %17, %16
  %19 = load i32, ptr %6, align 4, !tbaa !13
  store i32 %19, ptr %7, align 4, !tbaa !13
  call void @llvm.lifetime.end.p0(i64 4, ptr %6) #11
  %20 = load i32, ptr %7, align 4, !tbaa !13
  %21 = sext i32 %20 to i64
  %22 = call i64 @llvm.expect.i64(i64 %21, i64 1)
  %23 = icmp ne i64 %22, 0
  br i1 %23, label %24, label %25

24:                                               ; preds = %18
  br label %26

25:                                               ; preds = %18
  call void @g_return_if_fail_warning(ptr noundef null, ptr noundef @__func__._gradient_slider_button_release, ptr noundef @.str.9)
  store i32 0, ptr %3, align 4
  br label %84

26:                                               ; preds = %24
  br label %27

27:                                               ; preds = %26
  call void @llvm.lifetime.start.p0(i64 8, ptr %8) #11
  %28 = load ptr, ptr %4, align 8, !tbaa !54
  %29 = call ptr @DTGTK_GRADIENT_SLIDER(ptr noundef %28)
  store ptr %29, ptr %8, align 8, !tbaa !24
  call void @llvm.lifetime.start.p0(i64 4, ptr %9) #11
  %30 = load ptr, ptr %8, align 8, !tbaa !24
  %31 = call i32 @_get_active_marker(ptr noundef %30)
  store i32 %31, ptr %9, align 4, !tbaa !13
  %32 = load ptr, ptr %5, align 8, !tbaa !146
  %33 = getelementptr inbounds nuw %struct._GdkEventButton, ptr %32, i32 0, i32 8
  %34 = load i32, ptr %33, align 4, !tbaa !148
  %35 = icmp eq i32 %34, 1
  br i1 %35, label %36, label %83

36:                                               ; preds = %27
  %37 = load i32, ptr %9, align 4, !tbaa !13
  %38 = icmp ne i32 %37, -1
  br i1 %38, label %39, label %83

39:                                               ; preds = %36
  %40 = load ptr, ptr %8, align 8, !tbaa !24
  %41 = getelementptr inbounds nuw %struct._GtkDarktableGradientSlider, ptr %40, i32 0, i32 16
  %42 = load i32, ptr %41, align 4, !tbaa !37
  %43 = icmp eq i32 %42, 0
  br i1 %43, label %44, label %83

44:                                               ; preds = %39
  %45 = load ptr, ptr %8, align 8, !tbaa !24
  %46 = getelementptr inbounds nuw %struct._GtkDarktableGradientSlider, ptr %45, i32 0, i32 14
  store i32 1, ptr %46, align 4, !tbaa !38
  call void @llvm.lifetime.start.p0(i64 8, ptr %10) #11
  %47 = load ptr, ptr %4, align 8, !tbaa !54
  %48 = load ptr, ptr %5, align 8, !tbaa !146
  %49 = getelementptr inbounds nuw %struct._GdkEventButton, ptr %48, i32 0, i32 4
  %50 = load double, ptr %49, align 8, !tbaa !153
  %51 = call reassoc nsz arcp contract afn double @_get_position_from_screen(ptr noundef %47, double noundef %50)
  store double %51, ptr %10, align 8, !tbaa !45
  call void @llvm.lifetime.start.p0(i64 4, ptr %11) #11
  %52 = load ptr, ptr %8, align 8, !tbaa !24
  %53 = getelementptr inbounds nuw %struct._GtkDarktableGradientSlider, ptr %52, i32 0, i32 5
  %54 = load i32, ptr %9, align 4, !tbaa !13
  %55 = sext i32 %54 to i64
  %56 = getelementptr inbounds [10 x double], ptr %53, i64 0, i64 %55
  %57 = load double, ptr %56, align 8, !tbaa !45
  %58 = load double, ptr %10, align 8, !tbaa !45
  %59 = fcmp reassoc nsz arcp contract afn ole double %57, %58
  %60 = select i1 %59, i32 1, i32 0
  store i32 %60, ptr %11, align 4, !tbaa !13
  %61 = load ptr, ptr %4, align 8, !tbaa !54
  %62 = load i32, ptr %9, align 4, !tbaa !13
  %63 = load double, ptr %10, align 8, !tbaa !45
  %64 = load i32, ptr %11, align 4, !tbaa !13
  %65 = call reassoc nsz arcp contract afn double @_slider_move(ptr noundef %61, i32 noundef %62, double noundef %63, i32 noundef %64)
  %66 = load ptr, ptr %4, align 8, !tbaa !54
  call void @gtk_widget_queue_draw(ptr noundef %66)
  %67 = load ptr, ptr %8, align 8, !tbaa !24
  %68 = getelementptr inbounds nuw %struct._GtkDarktableGradientSlider, ptr %67, i32 0, i32 13
  store i32 0, ptr %68, align 8, !tbaa !39
  %69 = load ptr, ptr %8, align 8, !tbaa !24
  %70 = getelementptr inbounds nuw %struct._GtkDarktableGradientSlider, ptr %69, i32 0, i32 19
  %71 = load i32, ptr %70, align 8, !tbaa !40
  %72 = icmp ne i32 %71, 0
  br i1 %72, label %73, label %78

73:                                               ; preds = %44
  %74 = load ptr, ptr %8, align 8, !tbaa !24
  %75 = getelementptr inbounds nuw %struct._GtkDarktableGradientSlider, ptr %74, i32 0, i32 19
  %76 = load i32, ptr %75, align 8, !tbaa !40
  %77 = call i32 @g_source_remove(i32 noundef %76)
  br label %78

78:                                               ; preds = %73, %44
  %79 = load ptr, ptr %8, align 8, !tbaa !24
  %80 = getelementptr inbounds nuw %struct._GtkDarktableGradientSlider, ptr %79, i32 0, i32 19
  store i32 0, ptr %80, align 8, !tbaa !40
  %81 = load ptr, ptr %4, align 8, !tbaa !54
  %82 = call ptr @g_type_check_instance_cast(ptr noundef %81, i64 noundef 80)
  call void (ptr, ptr, ...) @g_signal_emit_by_name(ptr noundef %82, ptr noundef @.str.2)
  call void @llvm.lifetime.end.p0(i64 4, ptr %11) #11
  call void @llvm.lifetime.end.p0(i64 8, ptr %10) #11
  br label %83

83:                                               ; preds = %78, %39, %36, %27
  store i32 1, ptr %3, align 4
  call void @llvm.lifetime.end.p0(i64 4, ptr %9) #11
  call void @llvm.lifetime.end.p0(i64 8, ptr %8) #11
  br label %84

84:                                               ; preds = %83, %25
  %85 = load i32, ptr %3, align 4
  ret i32 %85
}