; Function Attrs: nounwind uwtable
define internal range(i32 0, 2) i32 @_gradient_slider_button_release(ptr noundef %0, ptr noundef readonly captures(none) %1) #0 {
  %3 = load atomic i64, ptr @_gradient_slider_get_type.static_g_define_type_id seq_cst, align 8
  %.not.i.i.i = icmp eq i64 %3, 0
  br i1 %.not.i.i.i, label %4, label %dtgtk_gradient_slider_get_type.exit.i

4:                                                ; preds = %2
  %5 = tail call i32 @g_once_init_enter(ptr noundef nonnull @_gradient_slider_get_type.static_g_define_type_id) #14
  %.not4.i.i.i = icmp eq i32 %5, 0
  br i1 %.not4.i.i.i, label %dtgtk_gradient_slider_get_type.exit.i, label %6

6:                                                ; preds = %4
  %7 = tail call fastcc i64 @_gradient_slider_get_type_once()
  tail call void @g_once_init_leave(ptr noundef nonnull @_gradient_slider_get_type.static_g_define_type_id, i64 noundef %7) #14
  br label %dtgtk_gradient_slider_get_type.exit.i

dtgtk_gradient_slider_get_type.exit.i:            ; preds = %6, %4, %2
  %8 = load i64, ptr @_gradient_slider_get_type.static_g_define_type_id, align 8, !tbaa !6
  %.not.i = icmp eq ptr %0, null
  br i1 %.not.i, label %DTGTK_IS_GRADIENT_SLIDER.exit.thread, label %9

9:                                                ; preds = %dtgtk_gradient_slider_get_type.exit.i
  %10 = load ptr, ptr %0, align 8, !tbaa !113
  %.not10.i = icmp eq ptr %10, null
  br i1 %.not10.i, label %DTGTK_IS_GRADIENT_SLIDER.exit, label %11

11:                                               ; preds = %9
  %12 = load i64, ptr %10, align 8, !tbaa !107
  %13 = icmp eq i64 %12, %8
  br i1 %13, label %DTGTK_IS_GRADIENT_SLIDER.exit.thread35, label %DTGTK_IS_GRADIENT_SLIDER.exit

DTGTK_IS_GRADIENT_SLIDER.exit:                    ; preds = %9, %11
  %14 = tail call i32 @g_type_check_instance_is_a(ptr noundef nonnull readonly %0, i64 noundef %8) #17
  %.not = icmp eq i32 %14, 0
  br i1 %.not, label %DTGTK_IS_GRADIENT_SLIDER.exit.thread, label %DTGTK_IS_GRADIENT_SLIDER.exit.thread35, !prof !114

DTGTK_IS_GRADIENT_SLIDER.exit.thread:             ; preds = %dtgtk_gradient_slider_get_type.exit.i, %DTGTK_IS_GRADIENT_SLIDER.exit
  tail call void @g_return_if_fail_warning(ptr noundef null, ptr noundef nonnull @__func__._gradient_slider_button_release, ptr noundef nonnull @.str.9) #14
  br label %56

DTGTK_IS_GRADIENT_SLIDER.exit.thread35:           ; preds = %11, %DTGTK_IS_GRADIENT_SLIDER.exit
  %15 = load atomic i64, ptr @_gradient_slider_get_type.static_g_define_type_id seq_cst, align 8
  %.not.i.i.i30 = icmp eq i64 %15, 0
  br i1 %.not.i.i.i30, label %16, label %DTGTK_GRADIENT_SLIDER.exit

16:                                               ; preds = %DTGTK_IS_GRADIENT_SLIDER.exit.thread35
  %17 = tail call i32 @g_once_init_enter(ptr noundef nonnull @_gradient_slider_get_type.static_g_define_type_id) #14
  %.not4.i.i.i32 = icmp eq i32 %17, 0
  br i1 %.not4.i.i.i32, label %DTGTK_GRADIENT_SLIDER.exit, label %18

18:                                               ; preds = %16
  %19 = tail call fastcc i64 @_gradient_slider_get_type_once()
  tail call void @g_once_init_leave(ptr noundef nonnull @_gradient_slider_get_type.static_g_define_type_id, i64 noundef %19) #14
  br label %DTGTK_GRADIENT_SLIDER.exit

DTGTK_GRADIENT_SLIDER.exit:                       ; preds = %DTGTK_IS_GRADIENT_SLIDER.exit.thread35, %16, %18
  %20 = load i64, ptr @_gradient_slider_get_type.static_g_define_type_id, align 8, !tbaa !6
  %21 = tail call ptr @g_type_check_instance_cast(ptr noundef nonnull %0, i64 noundef %20) #14
  %22 = getelementptr inbounds nuw i8, ptr %21, i64 48
  %23 = load i32, ptr %22, align 8, !tbaa !32
  %24 = icmp sgt i32 %23, -1
  br i1 %24, label %_get_active_marker.exit, label %25

25:                                               ; preds = %DTGTK_GRADIENT_SLIDER.exit
  %26 = getelementptr inbounds nuw i8, ptr %21, i64 52
  %27 = load i32, ptr %26, align 4, !tbaa !33
  br label %_get_active_marker.exit

_get_active_marker.exit:                          ; preds = %DTGTK_GRADIENT_SLIDER.exit, %25
  %28 = phi i32 [ %27, %25 ], [ %23, %DTGTK_GRADIENT_SLIDER.exit ]
  %29 = getelementptr inbounds nuw i8, ptr %1, i64 52
  %30 = load i32, ptr %29, align 4, !tbaa !127
  %31 = icmp eq i32 %30, 1
  %32 = icmp ne i32 %28, -1
  %or.cond = select i1 %31, i1 %32, i1 false
  br i1 %or.cond, label %33, label %56

33:                                               ; preds = %_get_active_marker.exit
  %34 = getelementptr inbounds nuw i8, ptr %21, i64 324
  %35 = load i32, ptr %34, align 4, !tbaa !28
  %36 = icmp eq i32 %35, 0
  br i1 %36, label %37, label %56

37:                                               ; preds = %33
  %38 = getelementptr inbounds nuw i8, ptr %21, i64 316
  store i32 1, ptr %38, align 4, !tbaa !29
  %39 = getelementptr inbounds nuw i8, ptr %1, i64 24
  %40 = load double, ptr %39, align 8, !tbaa !133
  %41 = tail call reassoc nsz arcp contract afn fastcc double @_get_position_from_screen(ptr noundef nonnull %0, double noundef %40)
  %42 = getelementptr inbounds nuw i8, ptr %21, i64 64
  %43 = sext i32 %28 to i64
  %44 = getelementptr inbounds [10 x double], ptr %42, i64 0, i64 %43
  %45 = load double, ptr %44, align 8, !tbaa !37
  %46 = fcmp reassoc nsz arcp contract afn ole double %45, %41
  %47 = zext i1 %46 to i32
  %48 = tail call reassoc nsz arcp contract afn fastcc double @_slider_move(ptr noundef nonnull %0, i32 noundef %28, double noundef %41, i32 noundef %47)
  tail call void @gtk_widget_queue_draw(ptr noundef nonnull %0) #14
  %49 = getelementptr inbounds nuw i8, ptr %21, i64 312
  store i32 0, ptr %49, align 8, !tbaa !30
  %50 = getelementptr inbounds nuw i8, ptr %21, i64 336
  %51 = load i32, ptr %50, align 8, !tbaa !31
  %.not29 = icmp eq i32 %51, 0
  br i1 %.not29, label %54, label %52

52:                                               ; preds = %37
  %53 = tail call i32 @g_source_remove(i32 noundef %51) #14
  br label %54

54:                                               ; preds = %52, %37
  store i32 0, ptr %50, align 8, !tbaa !31
  %55 = tail call ptr @g_type_check_instance_cast(ptr noundef nonnull %0, i64 noundef 80) #14
  tail call void (ptr, ptr, ...) @g_signal_emit_by_name(ptr noundef %55, ptr noundef nonnull @.str.2) #14
  br label %56

56:                                               ; preds = %_get_active_marker.exit, %33, %54, %DTGTK_IS_GRADIENT_SLIDER.exit.thread
  %.0 = phi i32 [ 0, %DTGTK_IS_GRADIENT_SLIDER.exit.thread ], [ 1, %54 ], [ 1, %33 ], [ 1, %_get_active_marker.exit ]
  ret i32 %.0
}